target datalayout = "e-m:e-p270:32:32-p271:32:32-p272:64:64-i64:64-i128:128-f80:128-n8:16:32:64-S128"
target triple = "x86_64-pc-linux-gnu"

%struct.If_Set_t_ = type { i16, i16, ptr, ptr }
%struct.If_Cut_t_ = type <{ float, float, float, float, i32, i32, i32, i64, [0 x i32] }>

; Function Attrs: inlinehint nounwind uwtable
define internal i32 @If_CutCheckDominance(ptr noundef %0, ptr noundef %1) #2 {
  %3 = alloca i32, align 4
  %4 = alloca ptr, align 8
  %5 = alloca ptr, align 8
  %6 = alloca i32, align 4
  %7 = alloca i32, align 4
  %8 = alloca i32, align 4
  store ptr %0, ptr %4, align 8, !tbaa !15
  store ptr %1, ptr %5, align 8, !tbaa !15
  call void @llvm.lifetime.start.p0(i64 4, ptr %6) #9
  call void @llvm.lifetime.start.p0(i64 4, ptr %7) #9
  store i32 0, ptr %6, align 4, !tbaa !8
  br label %9

9:                                                ; preds = %58, %2
  %10 = load i32, ptr %6, align 4, !tbaa !8
  %11 = load ptr, ptr %4, align 8, !tbaa !15
  %12 = getelementptr inbounds nuw %struct.If_Cut_t_, ptr %11, i32 0, i32 7
  %13 = load i64, ptr %12, align 4
  %14 = lshr i64 %13, 24
  %15 = and i64 %14, 255
  %16 = trunc i64 %15 to i32
  %17 = icmp slt i32 %10, %16
  br i1 %17, label %18, label %61

18:                                               ; preds = %9
  store i32 0, ptr %7, align 4, !tbaa !8
  br label %19

19:                                               ; preds = %44, %18
  %20 = load i32, ptr %7, align 4, !tbaa !8
  %21 = load ptr, ptr %5, align 8, !tbaa !15
  %22 = getelementptr inbounds nuw %struct.If_Cut_t_, ptr %21, i32 0, i32 7
  %23 = load i64, ptr %22, align 4
  %24 = lshr i64 %23, 24
  %25 = and i64 %24, 255
  %26 = trunc i64 %25 to i32
  %27 = icmp slt i32 %20, %26
  br i1 %27, label %28, label %47

28:                                               ; preds = %19
  %29 = load ptr, ptr %4, align 8, !tbaa !15
  %30 = getelementptr inbounds nuw %struct.If_Cut_t_, ptr %29, i32 0, i32 8
  %31 = load i32, ptr %6, align 4, !tbaa !8
  %32 = sext i32 %31 to i64
  %33 = getelementptr inbounds [0 x i32], ptr %30, i64 0, i64 %32
  %34 = load i32, ptr %33, align 4, !tbaa !8
  %35 = load ptr, ptr %5, align 8, !tbaa !15
  %36 = getelementptr inbounds nuw %struct.If_Cut_t_, ptr %35, i32 0, i32 8
  %37 = load i32, ptr %7, align 4, !tbaa !8
  %38 = sext i32 %37 to i64
  %39 = getelementptr inbounds [0 x i32], ptr %36, i64 0, i64 %38
  %40 = load i32, ptr %39, align 4, !tbaa !8
  %41 = icmp eq i32 %34, %40
  br i1 %41, label %42, label %43

42:                                               ; preds = %28
  br label %47

43:                                               ; preds = %28
  br label %44

44:                                               ; preds = %43
  %45 = load i32, ptr %7, align 4, !tbaa !8
  %46 = add nsw i32 %45, 1
  store i32 %46, ptr %7, align 4, !tbaa !8
  br label %19, !llvm.loop !33

47:                                               ; preds = %42, %19
  %48 = load i32, ptr %7, align 4, !tbaa !8
  %49 = load ptr, ptr %5, align 8, !tbaa !15
  %50 = getelementptr inbounds nuw %struct.If_Cut_t_, ptr %49, i32 0, i32 7
  %51 = load i64, ptr %50, align 4
  %52 = lshr i64 %51, 24
  %53 = and i64 %52, 255
  %54 = trunc i64 %53 to i32
  %55 = icmp eq i32 %48, %54
  br i1 %55, label %56, label %57

56:                                               ; preds = %47
  store i32 0, ptr %3, align 4
  store i32 1, ptr %8, align 4
  br label %62

57:                                               ; preds = %47
  br label %58

58:                                               ; preds = %57
  %59 = load i32, ptr %6, align 4, !tbaa !8
  %60 = add nsw i32 %59, 1
  store i32 %60, ptr %6, align 4, !tbaa !8
  br label %9, !llvm.loop !34

61:                                               ; preds = %9
  store i32 1, ptr %3, align 4
  store i32 1, ptr %8, align 4
  br label %62

62:                                               ; preds = %61, %56
  call void @llvm.lifetime.end.p0(i64 4, ptr %7) #9
  call void @llvm.lifetime.end.p0(i64 4, ptr %6) #9
  %63 = load i32, ptr %3, align 4
  ret i32 %63
}

; Function Attrs: nounwind uwtable
define i32 @If_CutFilter(ptr noundef %0, ptr noundef %1, i32 noundef %2) #0 {
  %4 = alloca i32, align 4
  %5 = alloca ptr, align 8
  %6 = alloca ptr, align 8
  %7 = alloca i32, align 4
  %8 = alloca ptr, align 8
  %9 = alloca i32, align 4
  %10 = alloca i32, align 4
  %11 = alloca i32, align 4
  store ptr %0, ptr %5, align 8, !tbaa !3
  store ptr %1, ptr %6, align 8, !tbaa !15
  store i32 %2, ptr %7, align 4, !tbaa !8
  call void @llvm.lifetime.start.p0(i64 8, ptr %8) #9
  call void @llvm.lifetime.start.p0(i64 4, ptr %9) #9
  call void @llvm.lifetime.start.p0(i64 4, ptr %10) #9
  store i32 0, ptr %9, align 4, !tbaa !8
  br label %12

12:                                               ; preds = %154, %3
  %13 = load i32, ptr %9, align 4, !tbaa !8
  %14 = load ptr, ptr %5, align 8, !tbaa !3
  %15 = getelementptr inbounds nuw %struct.If_Set_t_, ptr %14, i32 0, i32 1
  %16 = load i16, ptr %15, align 2, !tbaa !10
  %17 = sext i16 %16 to i32
  %18 = icmp slt i32 %13, %17
  br i1 %18, label %19, label %157

19:                                               ; preds = %12
  %20 = load ptr, ptr %5, align 8, !tbaa !3
  %21 = getelementptr inbounds nuw %struct.If_Set_t_, ptr %20, i32 0, i32 3
  %22 = load ptr, ptr %21, align 8, !tbaa !14
  %23 = load i32, ptr %9, align 4, !tbaa !8
  %24 = sext i32 %23 to i64
  %25 = getelementptr inbounds ptr, ptr %22, i64 %24
  %26 = load ptr, ptr %25, align 8, !tbaa !15
  store ptr %26, ptr %8, align 8, !tbaa !15
  %27 = load ptr, ptr %8, align 8, !tbaa !15
  %28 = getelementptr inbounds nuw %struct.If_Cut_t_, ptr %27, i32 0, i32 7
  %29 = load i64, ptr %28, align 4
  %30 = lshr i64 %29, 24
  %31 = and i64 %30, 255
  %32 = trunc i64 %31 to i32
  %33 = load ptr, ptr %6, align 8, !tbaa !15
  %34 = getelementptr inbounds nuw %struct.If_Cut_t_, ptr %33, i32 0, i32 7
  %35 = load i64, ptr %34, align 4
  %36 = lshr i64 %35, 24
  %37 = and i64 %36, 255
  %38 = trunc i64 %37 to i32
  %39 = icmp sgt i32 %32, %38
  br i1 %39, label %40, label %133

40:                                               ; preds = %19
  %41 = load i32, ptr %9, align 4, !tbaa !8
  %42 = icmp eq i32 %41, 0
  br i1 %42, label %43, label %71

43:                                               ; preds = %40
  %44 = load ptr, ptr %5, align 8, !tbaa !3
  %45 = getelementptr inbounds nuw %struct.If_Set_t_, ptr %44, i32 0, i32 1
  %46 = load i16, ptr %45, align 2, !tbaa !10
  %47 = sext i16 %46 to i32
  %48 = icmp sgt i32 %47, 1
  br i1 %48, label %49, label %61

49:                                               ; preds = %43
  %50 = load ptr, ptr %5, align 8, !tbaa !3
  %51 = getelementptr inbounds nuw %struct.If_Set_t_, ptr %50, i32 0, i32 3
  %52 = load ptr, ptr %51, align 8, !tbaa !14
  %53 = getelementptr inbounds ptr, ptr %52, i64 1
  %54 = load ptr, ptr %53, align 8, !tbaa !15
  %55 = getelementptr inbounds nuw %struct.If_Cut_t_, ptr %54, i32 0, i32 7
  %56 = load i64, ptr %55, align 4
  %57 = lshr i64 %56, 14
  %58 = and i64 %57, 1
  %59 = trunc i64 %58 to i32
  %60 = icmp ne i32 %59, 0
  br i1 %60, label %70, label %61

61:                                               ; preds = %49, %43
  %62 = load i32, ptr %7, align 4, !tbaa !8
  %63 = icmp ne i32 %62, 0
  br i1 %63, label %64, label %71

64:                                               ; preds = %61
  %65 = load ptr, ptr %5, align 8, !tbaa !3
  %66 = getelementptr inbounds nuw %struct.If_Set_t_, ptr %65, i32 0, i32 1
  %67 = load i16, ptr %66, align 2, !tbaa !10
  %68 = sext i16 %67 to i32
  %69 = icmp eq i32 %68, 1
  br i1 %69, label %70, label %71

70:                                               ; preds = %64, %49
  br label %154

71:                                               ; preds = %64, %61, %40
  %72 = load ptr, ptr %8, align 8, !tbaa !15
  %73 = getelementptr inbounds nuw %struct.If_Cut_t_, ptr %72, i32 0, i32 6
  %74 = load i32, ptr %73, align 4, !tbaa !28
  %75 = load ptr, ptr %6, align 8, !tbaa !15
  %76 = getelementptr inbounds nuw %struct.If_Cut_t_, ptr %75, i32 0, i32 6
  %77 = load i32, ptr %76, align 4, !tbaa !28
  %78 = and i32 %74, %77
  %79 = load ptr, ptr %6, align 8, !tbaa !15
  %80 = getelementptr inbounds nuw %struct.If_Cut_t_, ptr %79, i32 0, i32 6
  %81 = load i32, ptr %80, align 4, !tbaa !28
  %82 = icmp ne i32 %78, %81
  br i1 %82, label %83, label %84

83:                                               ; preds = %71
  br label %154

84:                                               ; preds = %71
  %85 = load ptr, ptr %6, align 8, !tbaa !15
  %86 = load ptr, ptr %8, align 8, !tbaa !15
  %87 = call i32 @If_CutCheckDominance(ptr noundef %85, ptr noundef %86)
  %88 = icmp ne i32 %87, 0
  br i1 %88, label %89, label %132

89:                                               ; preds = %84
  %90 = load i32, ptr %9, align 4, !tbaa !8
  store i32 %90, ptr %10, align 4, !tbaa !8
  br label %91

91:                                               ; preds = %113, %89
  %92 = load i32, ptr %10, align 4, !tbaa !8
  %93 = load ptr, ptr %5, align 8, !tbaa !3
  %94 = getelementptr inbounds nuw %struct.If_Set_t_, ptr %93, i32 0, i32 1
  %95 = load i16, ptr %94, align 2, !tbaa !10
  %96 = sext i16 %95 to i32
  %97 = icmp slt i32 %92, %96
  br i1 %97, label %98, label %116

98:                                               ; preds = %91
  %99 = load ptr, ptr %5, align 8, !tbaa !3
  %100 = getelementptr inbounds nuw %struct.If_Set_t_, ptr %99, i32 0, i32 3
  %101 = load ptr, ptr %100, align 8, !tbaa !14
  %102 = load i32, ptr %10, align 4, !tbaa !8
  %103 = add nsw i32 %102, 1
  %104 = sext i32 %103 to i64
  %105 = getelementptr inbounds ptr, ptr %101, i64 %104
  %106 = load ptr, ptr %105, align 8, !tbaa !15
  %107 = load ptr, ptr %5, align 8, !tbaa !3
  %108 = getelementptr inbounds nuw %struct.If_Set_t_, ptr %107, i32 0, i32 3
  %109 = load ptr, ptr %108, align 8, !tbaa !14
  %110 = load i32, ptr %10, align 4, !tbaa !8
  %111 = sext i32 %110 to i64
  %112 = getelementptr inbounds ptr, ptr %109, i64 %111
  store ptr %106, ptr %112, align 8, !tbaa !15
  br label %113

113:                                              ; preds = %98
  %114 = load i32, ptr %10, align 4, !tbaa !8
  %115 = add nsw i32 %114, 1
  store i32 %115, ptr %10, align 4, !tbaa !8
  br label %91, !llvm.loop !31

116:                                              ; preds = %91
  %117 = load ptr, ptr %8, align 8, !tbaa !15
  %118 = load ptr, ptr %5, align 8, !tbaa !3
  %119 = getelementptr inbounds nuw %struct.If_Set_t_, ptr %118, i32 0, i32 3
  %120 = load ptr, ptr %119, align 8, !tbaa !14
  %121 = load ptr, ptr %5, align 8, !tbaa !3
  %122 = getelementptr inbounds nuw %struct.If_Set_t_, ptr %121, i32 0, i32 1
  %123 = load i16, ptr %122, align 2, !tbaa !10
  %124 = sext i16 %123 to i64
  %125 = getelementptr inbounds ptr, ptr %120, i64 %124
  store ptr %117, ptr %125, align 8, !tbaa !15
  %126 = load ptr, ptr %5, align 8, !tbaa !3
  %127 = getelementptr inbounds nuw %struct.If_Set_t_, ptr %126, i32 0, i32 1
  %128 = load i16, ptr %127, align 2, !tbaa !10
  %129 = add i16 %128, -1
  store i16 %129, ptr %127, align 2, !tbaa !10
  %130 = load i32, ptr %9, align 4, !tbaa !8
  %131 = add nsw i32 %130, -1
  store i32 %131, ptr %9, align 4, !tbaa !8
  br label %132

132:                                              ; preds = %116, %84
  br label %153

133:                                              ; preds = %19
  %134 = load ptr, ptr %8, align 8, !tbaa !15
  %135 = getelementptr inbounds nuw %struct.If_Cut_t_, ptr %134, i32 0, i32 6
  %136 = load i32, ptr %135, align 4, !tbaa !28
  %137 = load ptr, ptr %6, align 8, !tbaa !15
  %138 = getelementptr inbounds nuw %struct.If_Cut_t_, ptr %137, i32 0, i32 6
  %139 = load i32, ptr %138, align 4, !tbaa !28
  %140 = and i32 %136, %139
  %141 = load ptr, ptr %8, align 8, !tbaa !15
  %142 = getelementptr inbounds nuw %struct.If_Cut_t_, ptr %141, i32 0, i32 6
  %143 = load i32, ptr %142, align 4, !tbaa !28
  %144 = icmp ne i32 %140, %143
  br i1 %144, label %145, label %146

145:                                              ; preds = %133
  br label %154

146:                                              ; preds = %133
  %147 = load ptr, ptr %8, align 8, !tbaa !15
  %148 = load ptr, ptr %6, align 8, !tbaa !15
  %149 = call i32 @If_CutCheckDominance(ptr noundef %147, ptr noundef %148)
  %150 = icmp ne i32 %149, 0
  br i1 %150, label %151, label %152

151:                                              ; preds = %146
  store i32 1, ptr %4, align 4
  store i32 1, ptr %11, align 4
  br label %158

152:                                              ; preds = %146
  br label %153

153:                                              ; preds = %152, %132
  br label %154

154:                                              ; preds = %153, %145, %83, %70
  %155 = load i32, ptr %9, align 4, !tbaa !8
  %156 = add nsw i32 %155, 1
  store i32 %156, ptr %9, align 4, !tbaa !8
  br label %12, !llvm.loop !32

157:                                              ; preds = %12
  store i32 0, ptr %4, align 4
  store i32 1, ptr %11, align 4
  br label %158

158:                                              ; preds = %157, %151
  call void @llvm.lifetime.end.p0(i64 4, ptr %10) #9
  call void @llvm.lifetime.end.p0(i64 4, ptr %9) #9
  call void @llvm.lifetime.end.p0(i64 8, ptr %8) #9
  %159 = load i32, ptr %4, align 4
  ret i32 %159
}