; Function Attrs: nofree norecurse nosync nounwind memory(readwrite, inaccessiblemem: none) uwtable
define range(i32 0, 2) i32 @If_CutFilter(ptr noundef captures(none) %0, ptr noundef readonly captures(none) %1, i32 noundef %2) local_unnamed_addr #2 {
  %4 = getelementptr inbounds nuw i8, ptr %0, i64 2
  %.promoted = load i16, ptr %4, align 2, !tbaa !3
  %5 = icmp sgt i16 %.promoted, 0
  br i1 %5, label %.lr.ph74, label %If_CutCheckDominance.exit62

.lr.ph74:                                         ; preds = %3
  %6 = zext nneg i16 %.promoted to i32
  %7 = getelementptr inbounds nuw i8, ptr %0, i64 16
  %8 = load ptr, ptr %7, align 8, !tbaa !11
  %9 = getelementptr inbounds nuw i8, ptr %1, i64 28
  %10 = getelementptr inbounds nuw i8, ptr %1, i64 24
  %11 = getelementptr inbounds nuw i8, ptr %1, i64 36
  %12 = getelementptr inbounds nuw i8, ptr %8, i64 8
  %.not40 = icmp ne i32 %2, 0
  br label %13

13:                                               ; preds = %.lr.ph74, %If_CutCheckDominance.exit.thread
  %14 = phi i32 [ %6, %.lr.ph74 ], [ %81, %If_CutCheckDominance.exit.thread ]
  %.03572 = phi i32 [ 0, %.lr.ph74 ], [ %80, %If_CutCheckDominance.exit.thread ]
  %15 = phi i16 [ %.promoted, %.lr.ph74 ], [ %79, %If_CutCheckDominance.exit.thread ]
  %16 = sext i32 %.03572 to i64
  %17 = getelementptr inbounds ptr, ptr %8, i64 %16
  %18 = load ptr, ptr %17, align 8, !tbaa !12
  %19 = getelementptr inbounds nuw i8, ptr %18, i64 28
  %20 = load i64, ptr %19, align 4
  %21 = trunc i64 %20 to i32
  %22 = lshr i32 %21, 24
  %23 = load i64, ptr %9, align 4
  %24 = trunc i64 %23 to i32
  %25 = lshr i32 %24, 24
  %26 = icmp samesign ugt i32 %22, %25
  br i1 %26, label %27, label %62

27:                                               ; preds = %13
  %28 = icmp eq i32 %.03572, 0
  br i1 %28, label %29, label %37

29:                                               ; preds = %27
  %30 = icmp sgt i16 %15, 1
  br i1 %30, label %31, label %36

31:                                               ; preds = %29
  %32 = load ptr, ptr %12, align 8, !tbaa !12
  %33 = getelementptr inbounds nuw i8, ptr %32, i64 28
  %34 = load i64, ptr %33, align 4
  %35 = and i64 %34, 16384
  %.not39.not = icmp eq i64 %35, 0
  br i1 %.not39.not, label %37, label %If_CutCheckDominance.exit.thread

36:                                               ; preds = %29
  %.old = icmp eq i16 %15, 1
  %or.cond.old = and i1 %.not40, %.old
  br i1 %or.cond.old, label %If_CutCheckDominance.exit.thread, label %37

37:                                               ; preds = %31, %36, %27
  %38 = getelementptr inbounds nuw i8, ptr %18, i64 24
  %39 = load i32, ptr %38, align 4, !tbaa !25
  %40 = load i32, ptr %10, align 4, !tbaa !25
  %41 = and i32 %40, %39
  %.not41 = icmp eq i32 %41, %40
  br i1 %.not41, label %42, label %If_CutCheckDominance.exit.thread

42:                                               ; preds = %37
  %.not.i = icmp ult i32 %24, 16777216
  br i1 %.not.i, label %If_CutCheckDominance.exit, label %.preheader.lr.ph.i

.preheader.lr.ph.i:                               ; preds = %42
  %.not25.i = icmp ult i32 %21, 16777216
  %43 = getelementptr inbounds nuw i8, ptr %18, i64 36
  br i1 %.not25.i, label %If_CutCheckDominance.exit.thread, label %.preheader.us.preheader.i

.preheader.us.preheader.i:                        ; preds = %.preheader.lr.ph.i
  %umax30.i = tail call i32 @llvm.umax.i32(i32 %25, i32 1)
  %wide.trip.count31.i = zext nneg i32 %umax30.i to i64
  %wide.trip.count.i = zext nneg i32 %22 to i64
  br label %.preheader.us.i

.preheader.us.i:                                  ; preds = %53, %.preheader.us.preheader.i
  %indvars.iv27.i = phi i64 [ 0, %.preheader.us.preheader.i ], [ %indvars.iv.next28.i, %53 ]
  %44 = getelementptr inbounds nuw [0 x i32], ptr %11, i64 0, i64 %indvars.iv27.i
  %45 = load i32, ptr %44, align 4, !tbaa !14
  br label %46

46:                                               ; preds = %50, %.preheader.us.i
  %indvars.iv.i = phi i64 [ 0, %.preheader.us.i ], [ %indvars.iv.next.i, %50 ]
  %47 = getelementptr inbounds nuw [0 x i32], ptr %43, i64 0, i64 %indvars.iv.i
  %48 = load i32, ptr %47, align 4, !tbaa !14
  %49 = icmp eq i32 %45, %48
  br i1 %49, label %._crit_edge.us.i, label %50

50:                                               ; preds = %46
  %indvars.iv.next.i = add nuw nsw i64 %indvars.iv.i, 1
  %exitcond.not.i = icmp eq i64 %indvars.iv.next.i, %wide.trip.count.i
  br i1 %exitcond.not.i, label %If_CutCheckDominance.exit.thread, label %46, !llvm.loop !26

._crit_edge.us.i:                                 ; preds = %46
  %51 = trunc nuw nsw i64 %indvars.iv.i to i32
  %52 = icmp eq i32 %22, %51
  br i1 %52, label %If_CutCheckDominance.exit.thread, label %53

53:                                               ; preds = %._crit_edge.us.i
  %indvars.iv.next28.i = add nuw nsw i64 %indvars.iv27.i, 1
  %exitcond32.not.i = icmp eq i64 %indvars.iv.next28.i, %wide.trip.count31.i
  br i1 %exitcond32.not.i, label %If_CutCheckDominance.exit, label %.preheader.us.i, !llvm.loop !27

If_CutCheckDominance.exit:                        ; preds = %53, %42
  %54 = icmp slt i32 %.03572, %14
  br i1 %54, label %.lr.ph.preheader, label %._crit_edge

.lr.ph.preheader:                                 ; preds = %If_CutCheckDominance.exit
  %wide.trip.count = sext i32 %14 to i64
  br label %.lr.ph

.lr.ph:                                           ; preds = %.lr.ph.preheader, %.lr.ph
  %indvars.iv = phi i64 [ %16, %.lr.ph.preheader ], [ %indvars.iv.next, %.lr.ph ]
  %indvars.iv.next = add nsw i64 %indvars.iv, 1
  %55 = getelementptr inbounds ptr, ptr %8, i64 %indvars.iv.next
  %56 = load ptr, ptr %55, align 8, !tbaa !12
  %57 = getelementptr inbounds ptr, ptr %8, i64 %indvars.iv
  store ptr %56, ptr %57, align 8, !tbaa !12
  %exitcond.not = icmp eq i64 %indvars.iv.next, %wide.trip.count
  br i1 %exitcond.not, label %._crit_edge, label %.lr.ph, !llvm.loop !28

._crit_edge:                                      ; preds = %.lr.ph, %If_CutCheckDominance.exit
  %58 = sext i16 %15 to i64
  %59 = getelementptr inbounds ptr, ptr %8, i64 %58
  store ptr %18, ptr %59, align 8, !tbaa !12
  %60 = add i16 %15, -1
  store i16 %60, ptr %4, align 2, !tbaa !3
  %61 = add nsw i32 %.03572, -1
  br label %If_CutCheckDominance.exit.thread

62:                                               ; preds = %13
  %63 = getelementptr inbounds nuw i8, ptr %18, i64 24
  %64 = load i32, ptr %63, align 4, !tbaa !25
  %65 = load i32, ptr %10, align 4, !tbaa !25
  %66 = and i32 %65, %64
  %.not = icmp eq i32 %66, %64
  br i1 %.not, label %67, label %If_CutCheckDominance.exit.thread

67:                                               ; preds = %62
  %.not.i43 = icmp ult i32 %21, 16777216
  br i1 %.not.i43, label %If_CutCheckDominance.exit62, label %.preheader.lr.ph.i44

.preheader.lr.ph.i44:                             ; preds = %67
  %68 = getelementptr inbounds nuw i8, ptr %18, i64 36
  %.not25.i45 = icmp ult i32 %24, 16777216
  br i1 %.not25.i45, label %If_CutCheckDominance.exit.thread, label %.preheader.us.preheader.i46

.preheader.us.preheader.i46:                      ; preds = %.preheader.lr.ph.i44
  %umax.i47 = tail call i32 @llvm.umax.i32(i32 %25, i32 1)
  %umax30.i48 = tail call i32 @llvm.umax.i32(i32 %22, i32 1)
  %wide.trip.count31.i49 = zext nneg i32 %umax30.i48 to i64
  %wide.trip.count.i50 = zext nneg i32 %umax.i47 to i64
  br label %.preheader.us.i51

.preheader.us.i51:                                ; preds = %78, %.preheader.us.preheader.i46
  %indvars.iv27.i52 = phi i64 [ 0, %.preheader.us.preheader.i46 ], [ %indvars.iv.next28.i58, %78 ]
  %69 = getelementptr inbounds nuw [0 x i32], ptr %68, i64 0, i64 %indvars.iv27.i52
  %70 = load i32, ptr %69, align 4, !tbaa !14
  br label %71

71:                                               ; preds = %75, %.preheader.us.i51
  %indvars.iv.i53 = phi i64 [ 0, %.preheader.us.i51 ], [ %indvars.iv.next.i54, %75 ]
  %72 = getelementptr inbounds nuw [0 x i32], ptr %11, i64 0, i64 %indvars.iv.i53
  %73 = load i32, ptr %72, align 4, !tbaa !14
  %74 = icmp eq i32 %70, %73
  br i1 %74, label %._crit_edge.us.split.loop.exit33.i61, label %75

75:                                               ; preds = %71
  %indvars.iv.next.i54 = add nuw nsw i64 %indvars.iv.i53, 1
  %exitcond.not.i55 = icmp eq i64 %indvars.iv.next.i54, %wide.trip.count.i50
  br i1 %exitcond.not.i55, label %._crit_edge.us.i56, label %71, !llvm.loop !26

._crit_edge.us.split.loop.exit33.i61:             ; preds = %71
  %76 = trunc nuw nsw i64 %indvars.iv.i53 to i32
  br label %._crit_edge.us.i56

._crit_edge.us.i56:                               ; preds = %75, %._crit_edge.us.split.loop.exit33.i61
  %.0.lcssa.us.i57 = phi i32 [ %76, %._crit_edge.us.split.loop.exit33.i61 ], [ %umax.i47, %75 ]
  %77 = icmp eq i32 %.0.lcssa.us.i57, %25
  br i1 %77, label %If_CutCheckDominance.exit.thread, label %78

78:                                               ; preds = %._crit_edge.us.i56
  %indvars.iv.next28.i58 = add nuw nsw i64 %indvars.iv27.i52, 1
  %exitcond32.not.i59 = icmp eq i64 %indvars.iv.next28.i58, %wide.trip.count31.i49
  br i1 %exitcond32.not.i59, label %If_CutCheckDominance.exit62, label %.preheader.us.i51, !llvm.loop !27

If_CutCheckDominance.exit.thread:                 ; preds = %._crit_edge.us.i56, %._crit_edge.us.i, %50, %36, %.preheader.lr.ph.i44, %.preheader.lr.ph.i, %._crit_edge, %62, %37, %31
  %79 = phi i16 [ %15, %31 ], [ %15, %37 ], [ %60, %._crit_edge ], [ %15, %62 ], [ %15, %.preheader.lr.ph.i ], [ %15, %.preheader.lr.ph.i44 ], [ 1, %36 ], [ %15, %50 ], [ %15, %._crit_edge.us.i ], [ %15, %._crit_edge.us.i56 ]
  %.1 = phi i32 [ 0, %31 ], [ %.03572, %37 ], [ %61, %._crit_edge ], [ %.03572, %62 ], [ %.03572, %.preheader.lr.ph.i ], [ %.03572, %.preheader.lr.ph.i44 ], [ 0, %36 ], [ %.03572, %50 ], [ %.03572, %._crit_edge.us.i ], [ %.03572, %._crit_edge.us.i56 ]
  %80 = add nsw i32 %.1, 1
  %81 = sext i16 %79 to i32
  %82 = icmp slt i32 %80, %81
  br i1 %82, label %13, label %If_CutCheckDominance.exit62, !llvm.loop !29

If_CutCheckDominance.exit62:                      ; preds = %If_CutCheckDominance.exit.thread, %67, %78, %3
  %.036 = phi i32 [ 0, %3 ], [ 1, %78 ], [ 0, %If_CutCheckDominance.exit.thread ], [ 1, %67 ]
  ret i32 %.036
}